target datalayout = "e-m:e-p270:32:32-p271:32:32-p272:64:64-i64:64-i128:128-f80:128-n8:16:32:64-S128"
target triple = "x86_64-pc-linux-gnu"

%struct.Curl_llist = type { ptr, ptr, ptr, i64 }
%struct.Curl_llist_node = type { ptr, ptr, ptr, ptr }

; Function Attrs: nounwind uwtable
define hidden void @Curl_llist_insert_next(ptr noundef %0, ptr noundef %1, ptr noundef %2, ptr noundef %3) #0 {
  %5 = alloca ptr, align 8
  %6 = alloca ptr, align 8
  %7 = alloca ptr, align 8
  %8 = alloca ptr, align 8
  store ptr %0, ptr %5, align 8, !tbaa !3
  store ptr %1, ptr %6, align 8, !tbaa !16
  store ptr %2, ptr %7, align 8, !tbaa !8
  store ptr %3, ptr %8, align 8, !tbaa !16
  br label %9

9:                                                ; preds = %4
  br label %10

10:                                               ; preds = %9
  br label %11

11:                                               ; preds = %10
  br label %12

12:                                               ; preds = %11
  br label %13

13:                                               ; preds = %12
  br label %14

14:                                               ; preds = %13
  %15 = load ptr, ptr %7, align 8, !tbaa !8
  %16 = load ptr, ptr %8, align 8, !tbaa !16
  %17 = getelementptr inbounds nuw %struct.Curl_llist_node, ptr %16, i32 0, i32 1
  store ptr %15, ptr %17, align 8, !tbaa !17
  %18 = load ptr, ptr %5, align 8, !tbaa !3
  %19 = load ptr, ptr %8, align 8, !tbaa !16
  %20 = getelementptr inbounds nuw %struct.Curl_llist_node, ptr %19, i32 0, i32 0
  store ptr %18, ptr %20, align 8, !tbaa !19
  %21 = load ptr, ptr %5, align 8, !tbaa !3
  %22 = getelementptr inbounds nuw %struct.Curl_llist, ptr %21, i32 0, i32 3
  %23 = load i64, ptr %22, align 8, !tbaa !9
  %24 = icmp eq i64 %23, 0
  br i1 %24, label %25, label %40

25:                                               ; preds = %14
  %26 = load ptr, ptr %8, align 8, !tbaa !16
  %27 = load ptr, ptr %5, align 8, !tbaa !3
  %28 = getelementptr inbounds nuw %struct.Curl_llist, ptr %27, i32 0, i32 0
  store ptr %26, ptr %28, align 8, !tbaa !14
  %29 = load ptr, ptr %5, align 8, !tbaa !3
  %30 = getelementptr inbounds nuw %struct.Curl_llist, ptr %29, i32 0, i32 0
  %31 = load ptr, ptr %30, align 8, !tbaa !14
  %32 = getelementptr inbounds nuw %struct.Curl_llist_node, ptr %31, i32 0, i32 2
  store ptr null, ptr %32, align 8, !tbaa !20
  %33 = load ptr, ptr %5, align 8, !tbaa !3
  %34 = getelementptr inbounds nuw %struct.Curl_llist, ptr %33, i32 0, i32 0
  %35 = load ptr, ptr %34, align 8, !tbaa !14
  %36 = getelementptr inbounds nuw %struct.Curl_llist_node, ptr %35, i32 0, i32 3
  store ptr null, ptr %36, align 8, !tbaa !21
  %37 = load ptr, ptr %8, align 8, !tbaa !16
  %38 = load ptr, ptr %5, align 8, !tbaa !3
  %39 = getelementptr inbounds nuw %struct.Curl_llist, ptr %38, i32 0, i32 1
  store ptr %37, ptr %39, align 8, !tbaa !15
  br label %93

40:                                               ; preds = %14
  %41 = load ptr, ptr %6, align 8, !tbaa !16
  %42 = icmp ne ptr %41, null
  br i1 %42, label %43, label %47

43:                                               ; preds = %40
  %44 = load ptr, ptr %6, align 8, !tbaa !16
  %45 = getelementptr inbounds nuw %struct.Curl_llist_node, ptr %44, i32 0, i32 3
  %46 = load ptr, ptr %45, align 8, !tbaa !21
  br label %51

47:                                               ; preds = %40
  %48 = load ptr, ptr %5, align 8, !tbaa !3
  %49 = getelementptr inbounds nuw %struct.Curl_llist, ptr %48, i32 0, i32 0
  %50 = load ptr, ptr %49, align 8, !tbaa !14
  br label %51

51:                                               ; preds = %47, %43
  %52 = phi ptr [ %46, %43 ], [ %50, %47 ]
  %53 = load ptr, ptr %8, align 8, !tbaa !16
  %54 = getelementptr inbounds nuw %struct.Curl_llist_node, ptr %53, i32 0, i32 3
  store ptr %52, ptr %54, align 8, !tbaa !21
  %55 = load ptr, ptr %6, align 8, !tbaa !16
  %56 = load ptr, ptr %8, align 8, !tbaa !16
  %57 = getelementptr inbounds nuw %struct.Curl_llist_node, ptr %56, i32 0, i32 2
  store ptr %55, ptr %57, align 8, !tbaa !20
  %58 = load ptr, ptr %6, align 8, !tbaa !16
  %59 = icmp ne ptr %58, null
  br i1 %59, label %69, label %60

60:                                               ; preds = %51
  %61 = load ptr, ptr %8, align 8, !tbaa !16
  %62 = load ptr, ptr %5, align 8, !tbaa !3
  %63 = getelementptr inbounds nuw %struct.Curl_llist, ptr %62, i32 0, i32 0
  %64 = load ptr, ptr %63, align 8, !tbaa !14
  %65 = getelementptr inbounds nuw %struct.Curl_llist_node, ptr %64, i32 0, i32 2
  store ptr %61, ptr %65, align 8, !tbaa !20
  %66 = load ptr, ptr %8, align 8, !tbaa !16
  %67 = load ptr, ptr %5, align 8, !tbaa !3
  %68 = getelementptr inbounds nuw %struct.Curl_llist, ptr %67, i32 0, i32 0
  store ptr %66, ptr %68, align 8, !tbaa !14
  br label %85

69:                                               ; preds = %51
  %70 = load ptr, ptr %6, align 8, !tbaa !16
  %71 = getelementptr inbounds nuw %struct.Curl_llist_node, ptr %70, i32 0, i32 3
  %72 = load ptr, ptr %71, align 8, !tbaa !21
  %73 = icmp ne ptr %72, null
  br i1 %73, label %74, label %80

74:                                               ; preds = %69
  %75 = load ptr, ptr %8, align 8, !tbaa !16
  %76 = load ptr, ptr %6, align 8, !tbaa !16
  %77 = getelementptr inbounds nuw %struct.Curl_llist_node, ptr %76, i32 0, i32 3
  %78 = load ptr, ptr %77, align 8, !tbaa !21
  %79 = getelementptr inbounds nuw %struct.Curl_llist_node, ptr %78, i32 0, i32 2
  store ptr %75, ptr %79, align 8, !tbaa !20
  br label %84

80:                                               ; preds = %69
  %81 = load ptr, ptr %8, align 8, !tbaa !16
  %82 = load ptr, ptr %5, align 8, !tbaa !3
  %83 = getelementptr inbounds nuw %struct.Curl_llist, ptr %82, i32 0, i32 1
  store ptr %81, ptr %83, align 8, !tbaa !15
  br label %84

84:                                               ; preds = %80, %74
  br label %85

85:                                               ; preds = %84, %60
  %86 = load ptr, ptr %6, align 8, !tbaa !16
  %87 = icmp ne ptr %86, null
  br i1 %87, label %88, label %92

88:                                               ; preds = %85
  %89 = load ptr, ptr %8, align 8, !tbaa !16
  %90 = load ptr, ptr %6, align 8, !tbaa !16
  %91 = getelementptr inbounds nuw %struct.Curl_llist_node, ptr %90, i32 0, i32 3
  store ptr %89, ptr %91, align 8, !tbaa !21
  br label %92

92:                                               ; preds = %88, %85
  br label %93

93:                                               ; preds = %92, %25
  %94 = load ptr, ptr %5, align 8, !tbaa !3
  %95 = getelementptr inbounds nuw %struct.Curl_llist, ptr %94, i32 0, i32 3
  %96 = load i64, ptr %95, align 8, !tbaa !9
  %97 = add i64 %96, 1
  store i64 %97, ptr %95, align 8, !tbaa !9
  ret void
}