; Function Attrs: mustprogress nofree norecurse nosync nounwind willreturn memory(readwrite, inaccessiblemem: none) uwtable
define hidden void @Curl_llist_insert_next(ptr noundef %0, ptr noundef %1, ptr noundef %2, ptr noundef initializes((0, 16)) %3) local_unnamed_addr #1 {
  %5 = getelementptr inbounds nuw i8, ptr %3, i64 8
  store ptr %2, ptr %5, align 8, !tbaa !11
  store ptr %0, ptr %3, align 8, !tbaa !14
  %6 = getelementptr inbounds nuw i8, ptr %0, i64 24
  %7 = load i64, ptr %6, align 8, !tbaa !3
  %8 = icmp eq i64 %7, 0
  br i1 %8, label %9, label %12

9:                                                ; preds = %4
  store ptr %3, ptr %0, align 8, !tbaa !15
  %10 = getelementptr inbounds nuw i8, ptr %3, i64 16
  %11 = getelementptr inbounds nuw i8, ptr %0, i64 8
  tail call void @llvm.memset.p0.i64(ptr noundef nonnull align 8 dereferenceable(16) %10, i8 0, i64 16, i1 false)
  store ptr %3, ptr %11, align 8, !tbaa !16
  br label %27

12:                                               ; preds = %4
  %.not = icmp eq ptr %1, null
  %13 = getelementptr inbounds nuw i8, ptr %1, i64 24
  %.in = select i1 %.not, ptr %0, ptr %13
  %14 = load ptr, ptr %.in, align 8, !tbaa !17
  %15 = getelementptr inbounds nuw i8, ptr %3, i64 24
  store ptr %14, ptr %15, align 8, !tbaa !18
  %16 = getelementptr inbounds nuw i8, ptr %3, i64 16
  store ptr %1, ptr %16, align 8, !tbaa !19
  br i1 %.not, label %23, label %17

17:                                               ; preds = %12
  %18 = load ptr, ptr %13, align 8, !tbaa !18
  %.not32 = icmp eq ptr %18, null
  br i1 %.not32, label %21, label %19

19:                                               ; preds = %17
  %20 = getelementptr inbounds nuw i8, ptr %18, i64 16
  store ptr %3, ptr %20, align 8, !tbaa !19
  br label %26

21:                                               ; preds = %17
  %22 = getelementptr inbounds nuw i8, ptr %0, i64 8
  store ptr %3, ptr %22, align 8, !tbaa !16
  br label %26

23:                                               ; preds = %12
  %24 = load ptr, ptr %0, align 8, !tbaa !15
  %25 = getelementptr inbounds nuw i8, ptr %24, i64 16
  store ptr %3, ptr %25, align 8, !tbaa !19
  store ptr %3, ptr %0, align 8, !tbaa !15
  br label %27

26:                                               ; preds = %19, %21
  store ptr %3, ptr %13, align 8, !tbaa !18
  br label %27

27:                                               ; preds = %23, %26, %9
  %28 = add i64 %7, 1
  store i64 %28, ptr %6, align 8, !tbaa !3
  ret void
}